(dp1
S'id_to_char'
p2
(dp3
I0
Ve
sI1
Vt
sI2
Vo
sI3
Va
sI4
Vn
sI5
Vh
sI6
Vs
sI7
Vr
sI8
Vi
sI9
Vl
sI10
Vd
sI11
Vu
sI12
Vm
sI13
Vw
sI14
Vg
sI15
Vf
sI16
Vc
sI17
Vy
sI18
Vb
sI19
Vp
sI20
Vv
sI21
Vk
sI22
VA
sI23
VT
sI24
VI
sI25
V-
sI26
VW
sI27
V'
sI28
VS
sI29
VB
sI30
VO
sI31
VH
sI32
VN
sI33
VF
sI34
VD
sI35
VL
sI36
VC
sI37
VP
sI38
VM
sI39
VR
sI40
Vz
sI41
Vx
sI42
VG
sI43
VE
sI44
Vj
sI45
VY
sI46
Vq
sI47
VU
sI48
VK
sI49
VJ
sI50
VV
sI51
VX
sI52
VZ
ssS'id_to_tag'
p4
(dp5
I0
VS-S
p6
sI1
VS-U
p7
sI2
VS-SU
p8
sI3
VB-U
p9
sI4
VE-U
p10
sI5
VB-S
p11
sI6
VE-S
p12
sI7
VS-US
p13
sI8
VI-S
p14
sI9
VB-SU
p15
sI10
VE-SU
p16
sI11
VS-SUS
p17
sI12
VS-USU
p18
sI13
VS-SUU
p19
sI14
VS-UU
p20
sI15
VS-SS
p21
sI16
VS-SUSU
p22
sI17
VI-SU
p23
sI18
VB-US
p24
sI19
VE-US
p25
sI20
VI-U
p26
sI21
VS-SSU
p27
sI22
VS-USUU
p28
sI23
VS-USUS
p29
sI24
VS-UUS
p30
sI25
VI-US
p31
sI26
VS-SUSUS
p32
sI27
VS-SUUSU
p33
sI28
VB-SUU
p34
sI29
VE-SUU
p35
sI30
VS-SSUSU
p36
sI31
VS-SUSUU
p37
sI32
VS-USUSU
p38
sI33
VS-USUUS
p39
ssS'id_to_word'
p40
(dp41
I0
S'<UNK>'
p42
sI1
Vthe
p43
sI2
Vand
p44
sI3
VAnd
p45
sI4
Vof
p46
sI5
VI
sI6
Vto
p47
sI7
Vin
p48
sI8
Va
sI9
Vwith
p49
sI10
Vme
p50
sI11
Vthat
p51
sI12
Vmy
p52
sI13
Vnot
p53
sI14
VThe
p54
sI15
Vfor
p55
sI16
Vhis
p56
sI17
Vall
p57
sI18
Vwas
p58
sI19
Vas
p59
sI20
Vit
p60
sI21
Vis
p61
sI22
Von
p62
sI23
Vfrom
p63
sI24
Vno
p64
sI25
VThat
p65
sI26
Vone
p66
sI27
Vbe
p67
sI28
Vhave
p68
sI29
Vhe
p69
sI30
Vor
p70
sI31
Vher
p71
sI32
Vyou
p72
sI33
Vat
p73
sI34
Vlove
p74
sI35
Vhim
p75
sI36
VBut
p76
sI37
Vlike
p77
sI38
Vnight
p78
sI39
Vtheir
p79
sI40
Vthou
p80
sI41
Vwhich
p81
sI42
VWith
p82
sI43
Vlong
p83
sI44
Vso
p84
sI45
VIn
p85
sI46
Vbut
p86
sI47
Vby
p87
sI48
Vwhen
p88
sI49
Vnow
p89
sI50
Vthis
p90
sI51
Vthy
p91
sI52
Vwere
p92
sI53
Vwhat
p93
sI54
Vcan
p94
sI55
Vmore
p95
sI56
Vwe
p96
sI57
Vare
p97
sI58
Vshe
p98
sI59
Vthee
p99
sI60
VA
sI61
VAs
p100
sI62
VTo
p101
sI63
Vthere
p102
sI64
VHe
p103
sI65
Veyes
p104
sI66
Vthem
p105
sI67
Vthen
p106
sI68
Vthrough
p107
sI69
Vday
p108
sI70
Vdo
p109
sI71
Vour
p110
sI72
VWhen
p111
sI73
Vout
p112
sI74
Vsee
p113
sI75
Vwho
p114
sI76
Vwould
p115
sI77
VSo
p116
sI78
VWhere
p117
sI79
Vlight
p118
sI80
Vmust
p119
sI81
VBy
p120
sI82
VOr
p121
sI83
Vshall
p122
sI84
Vthey
p123
sI85
Vupon
p124
sI86
Vwill
p125
sI87
VIt
p126
sI88
VNo
p127
sI89
VNor
p128
sI90
VO
sI91
VWhat
p129
sI92
Vcold
p130
sI93
Vcome
p131
sI94
Vfar
p132
sI95
Vhand
p133
sI96
Vhere
p134
sI97
Vshould
p135
sI98
Vtoo
p136
sI99
VLet
p137
sI100
VMy
p138
sI101
VOf
p139
sI102
VShe
p140
sI103
VThen
p141
sI104
VWho
p142
sI105
Vdeath
p143
sI106
Vdoth
p144
sI107
Vheart
p145
sI108
Vsea
p146
sI109
Vsleep
p147
sI110
Vsweet
p148
sI111
Vthought
p149
sI112
Vtwo
p150
sI113
Vup
p151
sI114
Vwhere
p152
sI115
VGod
p153
sI116
Vam
p154
sI117
Vever
p155
sI118
Vif
p156
sI119
Vmake
p157
sI120
Vonce
p158
sI121
Vplace
p159
sI122
Vsay
p160
sI123
Vsnow
p161
sI124
Vus
p162
sI125
VFor
p163
sI126
Vafter
p164
sI127
Vaway
p165
sI128
Vdid
p166
sI129
Vdown
p167
sI130
Veach
p168
sI131
Vfair
p169
sI132
Vfire
p170
sI133
Vhow
p171
sI134
Vinto
p172
sI135
Vits
p173
sI136
Vlet
p174
sI137
Vlife
p175
sI138
Vlittle
p176
sI139
Vmade
p177
sI140
Vmay
p178
sI141
Vtime
p179
sI142
VFrom
p180
sI143
VIs
p181
sI144
VNot
p182
sI145
VOne
p183
sI146
VYet
p184
sI147
Vagain
p185
sI148
Vbright
p186
sI149
Vhad
p187
sI150
Vhas
p188
sI151
Vman
p189
sI152
Vman's
p190
sI153
Vmotion
p191
sI154
Vmove
p192
sI155
Vnever
p193
sI156
Vonly
p194
sI157
Vover
p195
sI158
Vround
p196
sI159
Vsaw
p197
sI160
Vstand
p198
sI161
Vsuch
p199
sI162
Vthough
p200
sI163
Vwent
p201
sI164
Vwild
p202
sI165
Vyet
p203
sI166
Vyour
p204
sI167
VArt
p205
sI168
VDid
p206
sI169
VMay
p207
sI170
Vair
p208
sI171
Vany
p209
sI172
Vart
p210
sI173
Vblack
p211
sI174
Vcould
p212
sI175
Vgo
p213
sI176
Vhath
p214
sI177
Vhead
p215
sI178
Vheaven
p216
sI179
Vless
p217
sI180
Vmany
p218
sI181
Vmuch
p219
sI182
Vnone
p220
sI183
Vnor
p221
sI184
Vrest
p222
sI185
Vseemed
p223
sI186
Vsing
p224
sI187
Vstill
p225
sI188
Vtell
p226
sI189
Vthan
p227
sI190
Vthing
p228
sI191
Vthink
p229
sI192
Vway
p230
sI193
Vwood
p231
sI194
Vworld
p232
sI195
VBe
p233
sI196
VCome
p234
sI197
VCould
p235
sI198
VFar
p236
sI199
VHow
p237
sI200
VIf
p238
sI201
VLike
p239
sI202
VNow
p240
sI203
VThere
p241
sI204
VThey
p242
sI205
VThou
p243
sI206
VWhich
p244
sI207
Vabout
p245
sI208
Van
p246
sI209
Vappears
p247
sI210
Vbehind
p248
sI211
Vbeing
p249
sI212
Vbirds
p250
sI213
Vbreak
p251
sI214
Vcomes
p252
sI215
Vdare
p253
sI216
Vdeep
p254
sI217
Vdie
p255
sI218
Vdone
p256
sI219
Vdream
p257
sI220
Vdreams
p258
sI221
Vearth
p259
sI222
Veye
p260
sI223
Vface
p261
sI224
Vfeel
p262
sI225
Vfour
p263
sI226
Vgives
p264
sI227
Vheard
p265
sI228
Vhigh
p266
sI229
Vlast
p267
sI230
Vleave
p268
sI231
Vleft
p269
sI232
Vlie
p270
sI233
Vlines
p271
sI234
Vlook
p272
sI235
Vloud
p273
sI236
Vlowest
p274
sI237
Vmine
p275
sI238
Vmyself
p276
sI239
Vnew
p277
sI240
Voff
p278
sI241
Vold
p279
sI242
Vpart
p280
sI243
Vrich
p281
sI244
Vriver
p282
sI245
Vsaid
p283
sI246
Vsecret
p284
sI247
Vseen
p285
sI248
Vshort
p286
sI249
Vside
p287
sI250
Vsome
p288
sI251
Vswift
p289
sI252
Vthese
p290
sI253
Vthine
p291
sI254
Vthings
p292
sI255
Vtrue
p293
sI256
Vtruth
p294
sI257
Vwithout
p295
sI258
Vword
p296
sI259
VBeware
p297
sI260
VDown
p298
sI261
VFall
p299
sI262
VHis
p300
sI263
VLove
p301
sI264
VOn
p302
sI265
VOur
p303
sI266
VRose
p304
sI267
VYou
p305
sI268
Vbeauty
p306
sI269
Vbefore
p307
sI270
Vbehold
p308
sI271
Vbeneath
p309
sI272
Vbest
p310
sI273
Vblow
p311
sI274
Vblue
p312
sI275
Vbreath
p313
sI276
Vburning
p314
sI277
Vcall
p315
sI278
Vchasm
p316
sI279
Vclose
p317
sI280
Vcourse
p318
sI281
Vcries
p319
sI282
Vdim
p320
sI283
Vdome
p321
sI284
Velse
p322
sI285
Vend
p323
sI286
Veternal
p324
sI287
Vever-during
p325
sI288
Vexcept
p326
sI289
Vfall
p327
sI290
Vfear
p328
sI291
Vfears
p329
sI292
Vfew
p330
sI293
Vflowers
p331
sI294
Vfoot
p332
sI295
Vforce
p333
sI296
Vforth
p334
sI297
Vfound
p335
sI298
Vfountain
p336
sI299
Vfresh
p337
sI300
Vgazed
p338
sI301
Vget
p339
sI302
Vgray
p340
sI303
Vgreat
p341
sI304
Vgreen
p342
sI305
Vhair
p343
sI306
Vhands
p344
sI307
Vhearts
p345
sI308
Vheld
p346
sI309
Vhill
p347
sI310
Vhuge
p348
sI311
Vhuman
p349
sI312
Vhung
p350
sI313
Vice
p351
sI314
Vjust
p352
sI315
Vlies
p353
sI316
Vlive
p354
sI317
Vlives
p355
sI318
Vlow
p356
sI319
Vmakes
p357
sI320
Vmight
p358
sI321
Vother
p359
sI322
Vown
p360
sI323
Vrise
p361
sI324
Vsacred
p362
sI325
Vslow
p363
sI326
Vsong
p364
sI327
Vspeed
p365
sI328
Vstate
p366
sI329
Vstrange
p367
sI330
Vthin
p368
sI331
Vtill
p369
sI332
Vtook
p370
sI333
Vtree
p371
sI334
Vview
p372
sI335
Vvoice
p373
sI336
Vweak
p374
sI337
Vwell
p375
sI338
Vwhose
p376
sI339
Vwind
p377
sI340
Vwork
p378
sI341
Vyear's
p379
sI342
Vyellow
p380
sI343
V'Twas
p381
sI344
VAh
p382
sI345
VBecause
p383
sI346
VDeath's
p384
sI347
VFor--
p385
sI348
VGive
p386
sI349
VHad
p387
sI350
VHer
p388
sI351
VHuge
p389
sI352
VInto
p390
sI353
VJabberwock
p391
sI354
VMust
p392
sI355
VNature
p393
sI356
VOh
p394
sI357
VOnly
p395
sI358
VParadise
p396
sI359
VRomeo
p397
sI360
VSince
p398
sI361
VStill
p399
sI362
VTake
p400
sI363
VThan
p401
sI364
VThrough
p402
sI365
VThy
p403
sI366
VUntil
p404
sI367
VUpon
p405
sI368
VWe
p406
sI369
Vabove
p407
sI370
Valike
p408
sI371
Valone
p409
sI372
Vamazed
p410
sI373
Vanother
p411
sI374
Varms
p412
sI375
Vback
p413
sI376
Vbed
p414
sI377
Vbells
p415
sI378
Vbend
p416
sI379
Vbent
p417
sI380
Vbird
p418
sI381
Vboth
p419
sI382
Vbrain
p420
sI383
Vbreast
p421
sI384
Vbrows
p422
sI385
Vcame
p423
sI386
Vcannot
p424
sI387
Vcaves
p425
sI388
Vcheeks
p426
sI389
Vcloths
p427
sI390
Vcloud
p428
sI391
Vdark
p429
sI392
Vdead
p430
sI393
Vdesired
p431
sI394
Vdifficult
p432
sI395
Vdog
p433
sI396
Vdrop
p434
sI397
Vdue
p435
sI398
Venchanted
p436
sI399
Vfade
p437
sI400
Vfalls
p438
sI401
Vfast
p439
sI402
Vfeeble
p440
sI403
Vfell
p441
sI404
Vfirst
p442
sI405
Vflies
p443
sI406
Vfoe
p444
sI407
Vforests
p445
sI408
Vframe
p446
sI409
Vfree
p447
sI410
Vfriends
p448
sI411
Vgloom
p449
sI412
Vgolden
p450
sI413
Vgone
p451
sI414
Vgrass
p452
sI415
Vground
p453
sI416
Vhail
p454
sI417
Vhast
p455
sI418
Vhear
p456
sI419
Vheat
p457
sI420
Vholy
p458
sI421
Vhome
p459
sI422
Vknew
p460
sI423
Vknow
p461
sI424
Vland
p462
sI425
Vlarge
p463
sI426
Vlips
p464
sI427
Vlonely
p465
sI428
Vmazy
p466
sI429
Vmen
p467
sI430
Vmiles
p468
sI431
Vmind
p469
sI432
Vmomently
p470
sI433
Vmorning
p471
sI434
Vmost
p472
sI435
Vmourning
p473
sI436
Vname
p474
sI437
Vnarrow
p475
sI438
Vnature's
p476
sI439
Vnear
p477
sI440
Vneeds
p478
sI441
Vpale
p479
sI442
Vpass
p480
sI443
Vpleasures
p481
sI444
Vproved
p482
sI445
Vrun
p483
sI446
Vsands
p484
sI447
Vserve
p485
sI448
Vsharp
p486
sI449
Vsings
p487
sI450
Vskies
p488
sI451
Vsomewhere
p489
sI452
Vsoon
p490
sI453
Vsoul
p491
sI454
Vspent
p492
sI455
Vspring
p493
sI456
Vsprings
p494
sI457
Vstar
p495
sI458
Vstreet
p496
sI459
Vstrong
p497
sI460
Vsummer's
p498
sI461
Vsun
p499
sI462
Vsunny
p500
sI463
Vswamp
p501
sI464
Vsweetest
p502
sI465
Vswell
p503
sI466
Vthemselves
p504
sI467
Vthirst
p505
sI468
Vthose
p506
sI469
Vthrong
p507
sI470
Vtrod
p508
sI471
Vturn
p509
sI472
Vunder
p510
sI473
Vunderneath
p511
sI474
Vverse
p512
sI475
Vvexed
p513
sI476
Vwait
p514
sI477
Vwarm
p515
sI478
Vweigh
p516
sI479
Vwest
p517
sI480
Vwhispered
p518
sI481
Vwing
p519
sI482
Vwings
p520
sI483
Vwinter
p521
sI484
Vwithered
p522
sI485
Vworlds
p523
sI486
Vyoung
p524
sI487
V'Tis
p525
sI488
V'mid
p526
sI489
V'twas
p527
sI490
VAbout
p528
sI491
VAll
p529
sI492
VAlone
p530
sI493
VAmid
p531
sI494
VAnything
p532
sI495
VAre
p533
sI496
VArthur
p534
sI497
VBattening
p535
sI498
VBear
p536
sI499
VBid
p537
sI500
VBlow
p538
sI501
VBrain
p539
sI502
VCallay
p540
sI503
VCallooh
p541
sI504
VCan
p542
sI505
VChance
p543
sI506
VChristmas
p544
sI507
VDare
p545
sI508
VDark
p546
sI509
VDeath
p547
sI510
VDing-dong
p548
sI511
VDivorce
p549
sI512
VDraw
p550
sI513
VEase
p551
sI514
VEither
p552
sI515
VEve
p553
sI516
VExcept
p554
sI517
VFive
p555
sI518
VFlow'rs
p556
sI519
VFull
p557
sI520
VGreen
p558
sI521
VHarshness
p559
sI522
VHas
p560
sI523
VHeard
p561
sI524
VHeaven's
p562
sI525
VHigh
p563
sI526
VKing
p564
sI527
VKubla
p565
sI528
VLamb
p566
sI529
VLeave
p567
sI530
VLesbia
p568
sI531
VLodged
p569
sI532
VLong
p570
sI533
VLove's
p571
sI534
VNay
p572
sI535
VOffence
p573
sI536
VOut
p574
sI537
VOver
p575
sI538
VPale
p576
sI539
VPass'd
p577
sI540
VPlain
p578
sI541
VPress'd
p579
sI542
VRealm
p580
sI543
VRuns
p581
sI544
VSeeking
p582
sI545
VShall
p583
sI546
VSlow
p584
sI547
VStreams
p585
sI548
VSuch
p586
sI549
VSuddenly
p587
sI550
VSun-flower
p588
sI551
VTell
p589
sI552
VThese
p590
sI553
VThis
p591
sI554
VThough
p592
sI555
VThus
p593
sI556
VTill
p594
sI557
VTime
p595
sI558
VToo
p596
sI559
VTread
p597
sI560
VTrue
p598
sI561
VTyger
p599
sI562
VVirgin
p600
sI563
VWere
p601
sI564
VWest
p602
sI565
VWhereon
p603
sI566
VWishing
p604
sI567
VWithout
p605
sI568
VWoe
p606
sI569
VWriting
p607
sI570
VYea
p608
sI571
VYouth
p609
sI572
Vabide
p610
sI573
Vaccount
p611
sI574
Vadmired
p612
sI575
Vages
p613
sI576
Vail
p614
sI577
Valmost
p615
sI578
Valong
p616
sI579
Vancient
p617
sI580
Vangels
p618
sI581
Vapart
p619
sI582
Vask
p620
sI583
Vaspire
p621
sI584
Vbark
p622
sI585
Vbeams
p623
sI586
Vbeat
p624
sI587
Vbeating
p625
sI588
Vbeauties
p626
sI589
Vbecause
p627
sI590
Vbegins
p628
sI591
Vblood
p629
sI592
Vblush
p630
sI593
Vborogoves
p631
sI594
Vbottoms
p632
sI595
Vbound
p633
sI596
Vbrave
p634
sI597
Vbreaks
p635
sI598
Vbreathe
p636
sI599
Vbrillig
p637
sI600
Vbring
p638
sI601
Vcalling
p639
sI602
Vcandles
p640
sI603
Vcaptived
p641
sI604
Vcast
p642
sI605
Vcaverns
p643
sI606
Vcell
p644
sI607
Vchange
p645
sI608
Vchide
p646
sI609
Vchoirs
p647
sI610
Vclasped
p648
sI611
Vclime
p649
sI612
Vcloser
p650
sI613
Vclouds
p651
sI614
Vcontented
p652
sI615
Vcountry
p653
sI616
Vcrag
p654
sI617
Vcraggy
p655
sI618
Vcried
p656
sI619
Vcuplike
p657
sI620
Vcurse
p658
sI621
Vcut
p659
sI622
Vdancing
p660
sI623
Vdearest
p661
sI624
Vdecay
p662
sI625
Vdepart
p663
sI626
Vdesire
p664
sI627
Vdied
p665
sI628
Vdissolve
p666
sI629
Vdive
p667
sI630
Vdiverse
p668
sI631
Vdivided
p669
sI632
Vdivision
p670
sI633
Vdo--
p671
sI634
Vdotes
p672
sI635
Vdread
p673
sI636
Vdriven
p674
sI637
Vdrum
p675
sI638
Vdry
p676
sI639
Vdulcimer
p677
sI640
Vdwelt
p678
sI641
Vearth's
p679
sI642
Veither
p680
sI643
Vembers
p681
sI644
Vended
p682
sI645
Venough
p683
sI646
Venvy
p684
sI647
Vere
p685
sI648
Vevery
p686
sI649
Vfaces
p687
sI650
Vfaery's
p688
sI651
Vfallen
p689
sI652
Vfalse
p690
sI653
Vfamous
p691
sI654
Vfancies
p692
sI655
Vfate
p693
sI656
Vfearful
p694
sI657
Vfeather--
p695
sI658
Vfed
p696
sI659
Vfeet
p697
sI660
Vfictions
p698
sI661
Vfields
p699
sI662
Vfiery
p700
sI663
Vfind
p701
sI664
Vfinger
p702
sI665
Vfingers
p703
sI666
Vfires
p704
sI667
Vfive
p705
sI668
Vflame
p706
sI669
Vflat
p707
sI670
Vfleet
p708
sI671
Vflows
p709
sI672
Vflung
p710
sI673
Vfoolish
p711
sI674
Vforetold
p712
sI675
Vformer
p713
sI676
Vfortune
p714
sI677
Vfrabjous
p715
sI678
Vfragments
p716
sI679
Vfreedom
p717
sI680
Vfrozen
p718
sI681
Vfull
p719
sI682
Vfurnace
p720
sI683
Vfurrowed
p721
sI684
Vgain
p722
sI685
Vgazing
p723
sI686
Vgentle
p724
sI687
Vghost
p725
sI688
Vgimble
p726
sI689
Vgiven
p727
sI690
Vglad
p728
sI691
Vglass
p729
sI692
Vglobe
p730
sI693
Vgold
p731
sI694
Vgood
p732
sI695
Vgrace
p733
sI696
Vgrot
p734
sI697
Vgroves
p735
sI698
Vgrow
p736
sI699
Vgyre
p737
sI700
Vhalf
p738
sI701
Vhalf-moon
p739
sI702
Vhappy
p740
sI703
Vhaunted
p741
sI704
Vhearse
p742
sI705
Vheaven's
p743
sI706
Vheight
p744
sI707
Vhelp
p745
sI708
Vhide
p746
sI709
Vhill's
p747
sI710
Vhimself
p748
sI711
Vhollow
p749
sI712
Vhope
p750
sI713
Vhot
p751
sI714
Vhour
p752
sI715
Vhouse
p753
sI716
Vill
p754
sI717
Vimmortal
p755
sI718
Vimprison
p756
sI719
Vingulft
p757
sI720
Vinherit
p758
sI721
Vinvisible
p759
sI722
Vjot
p760
sI723
Vjoy
p761
sI724
Vjoys
p762
sI725
Vkeep
p763
sI726
Vkings
p764
sI727
Vkiss
p765
sI728
Vkneeling
p766
sI729
Vknight-at-arms
p767
sI730
Vknot
p768
sI731
Vknown
p769
sI732
Vknows
p770
sI733
Vlabor
p771
sI734
Vlabours
p772
sI735
Vlaid
p773
sI736
Vlain
p774
sI737
Vlake
p775
sI738
Vlamps
p776
sI739
Vlatest
p777
sI740
Vlatter
p778
sI741
Vleap
p779
sI742
Vlighted
p780
sI743
Vloitering
p781
sI744
Vlose
p782
sI745
Vlove's
p783
sI746
Vloved
p784
sI747
Vlovely
p785
sI748
Vlover
p786
sI749
Vloves
p787
sI750
Vmad
p788
sI751
Vmaid
p789
sI752
Vmain
p790
sI753
Vmark
p791
sI754
Vmask
p792
sI755
Vmatch
p793
sI756
Vmean
p794
sI757
Vmeandering
p795
sI758
Vmeasureless
p796
sI759
Vmelting
p797
sI760
Vmet
p798
sI761
Vmild
p799
sI762
Vmimsy
p800
sI763
Vmockeries
p801
sI764
Vmome
p802
sI765
Vmoon
p803
sI766
Vmore-
p804
sI767
Vmountain
p805
sI768
Vmurmur
p806
sI769
Vmusic
p807
sI770
Vnaked
p808
sI771
Vneither
p809
sI772
Vnext
p810
sI773
Vnice
p811
sI774
Vnightingale
p812
sI775
Vnothing
p813
sI776
Vo'er
p814
sI777
Vo'erthrow
p815
sI778
Vocean
p816
sI779
Voh
p817
sI780
Voutgrabe
p818
sI781
Vpalely
p819
sI782
Vpassage
p820
sI783
Vpatient
p821
sI784
Vpeaceful
p822
sI785
Vpile
p823
sI786
Vpined
p824
sI787
Vplay
p825
sI788
Vpleasure
p826
sI789
Vpointed
p827
sI790
Vprayers
p828
sI791
Vprevent
p829
sI792
Vprison
p830
sI793
Vproves
p831
sI794
Vput
p832
sI795
Vquench
p833
sI796
Vquickly
p834
sI797
Vrack
p835
sI798
Vran
p836
sI799
Vrapid
p837
sI800
Vrare
p838
sI801
Vraths
p839
sI802
Vrayne
p840
sI803
Vready
p841
sI804
Vreason
p842
sI805
Vrebounding
p843
sI806
Vremember
p844
sI807
Vretain
p845
sI808
Vrevive
p846
sI809
Vrill
p847
sI810
Vrocks
p848
sI811
Vroom
p849
sI812
Vrose
p850
sI813
Vruin
p851
sI814
Vsails
p852
sI815
Vsank
p853
sI816
Vsave
p854
sI817
Vsays
p855
sI818
Vscythe
p856
sI819
Vseals
p857
sI820
Vseaworms
p858
sI821
Vsecond
p859
sI822
Vsedge
p860
sI823
Vseek
p861
sI824
Vseest
p862
sI825
Vself
p863
sI826
Vsense
p864
sI827
Vset
p865
sI828
Vshade
p866
sI829
Vshadow
p867
sI830
Vshake
p868
sI831
Vshare
p869
sI832
Vshine
p870
sI833
Vshrill
p871
sI834
Vshrouded
p872
sI835
Vshun
p873
sI836
Vsick
p874
sI837
Vsinks
p875
sI838
Vsit
p876
sI839
Vsky
p877
sI840
Vsleeps
p878
sI841
Vslithy
p879
sI842
Vsmall
p880
sI843
Vsmile
p881
sI844
Vsmooth
p882
sI845
Vsoft-fallen
p883
sI846
Vsoftly
p884
sI847
Vsolemn
p885
sI848
Vsomething
p886
sI849
Vsometimes
p887
sI850
Vsort
p888
sI851
Vsouls
p889
sI852
Vspikes
p890
sI853
Vspirits
p891
sI854
Vspread
p892
sI855
Vstars
p893
sI856
Vsteadfast
p894
sI857
Vstone
p895
sI858
Vstood
p896
sI859
Vstop
p897
sI860
Vstretched
p898
sI861
Vstuff
p899
sI862
Vsubtle
p900
sI863
Vsummer
p901
sI864
Vsunken
p902
sI865
Vsure
p903
sI866
Vswing
p904
sI867
Vsword
p905
sI868
Vsymmetry
p906
sI869
Vtake
p907
sI870
Vtears
p908
sI871
Vtempteth
p909
sI872
Vthee--and
p910
sI873
Vthem--
p911
sI874
Vthere's
p912
sI875
Vthick
p913
sI876
Vthoughts
p914
sI877
Vthro'
p915
sI878
Vthrown
p916
sI879
Vthunderbolt
p917
sI880
Vthus
p918
sI881
Vtold
p919
sI882
Vtouch
p920
sI883
Vtoves
p921
sI884
Vtowards
p922
sI885
Vtowers
p923
sI886
Vtown
p924
sI887
Vtread
p925
sI888
Vtrees
p926
sI889
Vtrumpet
p927
sI890
Vtumult
p928
sI891
Vturning
p929
sI892
Vtyger
p930
sI893
Vuntie
p931
sI894
Vunto
p932
sI895
Vuntrue
p933
sI896
Vused
p934
sI897
Vuseless
p935
sI898
Vvaulted
p936
sI899
Vvision
p937
sI900
Vvorpal
p938
sI901
Vwabe
p939
sI902
Vwailing
p940
sI903
Vwaiting
p941
sI904
Vwalls
p942
sI905
Vwand'ring
p943
sI906
Vwaste
p944
sI907
Vwatch
p945
sI908
Vwaters
p946
sI909
Vwave
p947
sI910
Vwaves
p948
sI911
Vwears
p949
sI912
Vweeps
p950
sI913
Vweight
p951
sI914
Vwhite
p952
sI915
Vwhole
p953
sI916
Vwhom
p954
sI917
Vwhy
p955
sI918
Vwide
p956
sI919
Vwinds
p957
sI920
Vwoman
p958
sI921
Vwonder
p959
sI922
Vwondrous
p960
sI923
Vworth
p961
sI924
Vworthy
p962
sI925
Vyear
p963
sI926
Vyears
p964
sI927
Vyouth
p965
sI928
V'twould
p966
sI929
VAND
p967
sI930
VAbora
p968
sI931
VAbove
p969
sI932
VAbyssinian
p970
sI933
VAdonais
p971
sI934
VAgain
p972
sI935
VAjax
p973
sI936
VAlph
p974
sI937
VAmazed
p975
sI938
VAn
p976
sI939
VAnapests
p977
sI940
VAncestral
p978
sI941
VAnother
p979
sI942
VArise
p980
sI943
VAsk
p981
sI944
VAt
p982
sI945
VAwake
p983
sI946
VBandersnatch
p984
sI947
VBare
p985
sI948
VBatter
p986
sI949
VBeacons
p987
sI950
VBeauty
p988
sI951
VBecome
p989
sI952
VBeds
p990
sI953
VBehold
p991
sI954
VBeing
p992
sI955
VBelle
p993
sI956
VBelow
p994
sI957
VBenediction
p995
sI958
VBeside
p996
sI959
VBeyond
p997
sI960
VBlue
p998
sI961
VBlue--
p999
sI962
VBorne
p1000
sI963
VBrain--is
p1001
sI964
VBreasting
p1002
sI965
VBred
p1003
sI966
VBright
p1004
sI967
VBring
p1005
sI968
VBrooks
p1006
sI969
VBrute
p1007
sI970
VBuckle
p1008
sI971
VBurns
p1009
sI972
VBurnt
p1010
sI973
VCame
p1011
sI974
VCamilla
p1012
sI975
VCarry
p1013
sI976
VCatching
p1014
sI977
VChryst
p1015
sI978
VClematis
p1016
sI979
VClose
p1017
sI980
VConfusion
p1018
sI981
VConsumed
p1019
sI982
VConsuming
p1020
sI983
VCorn
p1021
sI984
VCrack
p1022
sI985
VCrushed
p1023
sI986
VDactyl
p1024
sI987
VDale
p1025
sI988
VDame
p1026
sI989
VDanish
p1027
sI990
VDecember
p1028
sI991
VDeep
p1029
sI992
VDescends
p1030
sI993
VDesiring
p1031
sI994
VDespair
p1032
sI995
VDick
p1033
sI996
VDoes
p1034
sI997
VDoors
p1035
sI998
VDoth
p1036
sI999
VDove
p1037
sI1000
VDroop
p1038
sI1001
VDrop
p1039
sI1002
VDrops
p1040
sI1003
VEarth
p1041
sI1004
VEcho
p1042
sI1005
VEden
p1043
sI1006
VEmbark
p1044
sI1007
VEnfolding
p1045
sI1008
VEnwrought
p1046
sI1009
VEre
p1047
sI1010
VEremite
p1048
sI1011
VEternal
p1049
sI1012
VEven
p1050
sI1013
VEver
p1051
sI1014
VEverything
p1052
sI1015
VExtremes
p1053
sI1016
VFaith
p1054
sI1017
VFalcon
p1055
sI1018
VFast
p1056
sI1019
VFeatured
p1057
sI1020
VFlies
p1058
sI1021
VFloated
p1059
sI1022
VFlood
p1060
sI1023
VFollow
p1061
sI1024
VForest
p1062
sI1025
VFount
p1063
sI1026
VFurness
p1064
sI1027
VGallop
p1065
sI1028
VGarden
p1066
sI1029
VGenerations
p1067
sI1030
VGhost
p1068
sI1031
VGo
p1069
sI1032
VGod--
p1070
sI1033
VGold
p1071
sI1034
VGreece
p1072
sI1035
VHampton
p1073
sI1036
VHands
p1074
sI1037
VHaply
p1075
sI1038
VHarfleur
p1076
sI1039
VHark
p1077
sI1040
VHath
p1078
sI1041
VHawk
p1079
sI1042
VHead-heavy
p1080
sI1043
VHear
p1081
sI1044
VHeaven
p1082
sI1045
VHeft
p1083
sI1046
VHere
p1084
sI1047
VHighness'
p1085
sI1048
VHill
p1086
sI1049
VHolding
p1087
sI1050
VHoly
p1088
sI1051
VHood
p1089
sI1052
VHoping
p1090
sI1053
VI'll
p1091
sI1054
VIambics
p1092
sI1055
VInnocence
p1093
sI1056
VJubjub
p1094
sI1057
VJulia
p1095
sI1058
VJust
p1096
sI1059
VKew
p1097
sI1060
VKhan
p1098
sI1061
VKnots
p1099
sI1062
VKraken
p1100
sI1063
VLa
p1101
sI1064
VLabor
p1102
sI1065
VLeap
p1103
sI1066
VLeaves
p1104
sI1067
VLies
p1105
sI1068
VLife
p1106
sI1069
VLine
p1107
sI1070
VList
p1108
sI1071
VLovers
p1109
sI1072
VMaids
p1110
sI1073
VMain
p1111
sI1074
VMaker
p1112
sI1075
VMen
p1113
sI1076
VMerci
p1114
sI1077
VMount
p1115
sI1078
VMoved
p1116
sI1079
VNaiad
p1117
sI1080
VNature's
p1118
sI1081
VNext
p1119
sI1082
VNo--yet
p1120
sI1083
VNothing
p1121
sI1084
VNumbers
p1122
sI1085
VNuns
p1123
sI1086
VOmy
p1124
sI1087
VOrient
p1125
sI1088
VOurselves
p1126
sI1089
VPart
p1127
sI1090
VPassion
p1128
sI1091
VPearl
p1129
sI1092
VPerhaps
p1130
sI1093
VPhaeton
p1131
sI1094
VPhoebus
p1132
sI1095
VPhoebus'
p1133
sI1096
VPillow'd
p1134
sI1097
VPlay
p1135
sI1098
VPlayed
p1136
sI1099
VPleased
p1137
sI1100
VPound
p1138
sI1101
VPound--
p1139
sI1102
VPour'd
p1140
sI1103
VPray
p1141
sI1104
VPrime
p1142
sI1105
VPrompt
p1143
sI1106
VRage
p1144
sI1107
VRan
p1145
sI1108
VRaven's
p1146
sI1109
VReason
p1147
sI1110
VRebuffed
p1148
sI1111
VRepair
p1149
sI1112
VRiddle
p1150
sI1113
VRiddled
p1151
sI1114
VRinged
p1152
sI1115
VRobs
p1153
sI1116
VRock's
p1154
sI1117
VRolled
p1155
sI1118
VRolling
p1156
sI1119
VRome
p1157
sI1120
VRough
p1158
sI1121
VSapphire
p1159
sI1122
VSat
p1160
sI1123
VSaturn
p1161
sI1124
VSaying
p1162
sI1125
VSea
p1163
sI1126
VSense
p1164
sI1127
VSeven
p1165
sI1128
VShake
p1166
sI1129
VShepherds
p1167
sI1130
VShine
p1168
sI1131
VShore
p1169
sI1132
VShould
p1170
sI1133
VShouldering
p1171
sI1134
VSinge
p1172
sI1135
VSinging
p1173
sI1136
VSir
p1174
sI1137
VSit
p1175
sI1138
VSky
p1176
sI1139
VSleepers'
p1177
sI1140
VSmall
p1178
sI1141
VSoft
p1179
sI1142
VSomeone
p1180
sI1143
VSomething
p1181
sI1144
VSometimes
p1182
sI1145
VSonnet's
p1183
sI1146
VSound
p1184
sI1147
VSound--
p1185
sI1148
VSouthward
p1186
sI1149
VSpondee
p1187
sI1150
VSpread
p1188
sI1151
VSpreading
p1189
sI1152
VStanding
p1190
sI1153
VStirred
p1191
sI1154
VStraight
p1192
sI1155
VStrain
p1193
sI1156
VStream
p1194
sI1157
VStrike
p1195
sI1158
VSuffer
p1196
sI1159
VSun
p1197
sI1160
VSuppose
p1198
sI1161
VSurges
p1199
sI1162
VSuspended
p1200
sI1163
VSyllable
p1201
sI1164
VThee
p1202
sI1165
VTheir
p1203
sI1166
VThem
p1204
sI1167
VThink
p1205
sI1168
VThose
p1206
sI1169
VThousands
p1207
sI1170
VThree
p1208
sI1171
VThrush
p1209
sI1172
VTimes
p1210
sI1173
VTo-morrow
p1211
sI1174
VToil
p1212
sI1175
VTorrent
p1213
sI1176
VTowards
p1214
sI1177
VTravelling
p1215
sI1178
VTriumph
p1216
sI1179
VTrochee
p1217
sI1180
VTumtum
p1218
sI1181
VUniverse
p1219
sI1182
VUnless
p1220
sI1183
VUnnumbered
p1221
sI1184
VVale
p1222
sI1185
VVanished
p1223
sI1186
VVaunt-couriers
p1224
sI1187
VVerse
p1225
sI1188
VWas
p1226
sI1189
VWater'd
p1227
sI1190
VWeave
p1228
sI1191
VWeight
p1229
sI1192
VWell
p1230
sI1193
VWent
p1231
sI1194
VWestron
p1232
sI1195
VWhat's
p1233
sI1196
VWhatever
p1234
sI1197
VWhenas
p1235
sI1198
VWhile
p1236
sI1199
VWhilst
p1237
sI1200
VWhitening
p1238
sI1201
VWhiter
p1239
sI1202
VWhose
p1240
sI1203
VWhy
p1241
sI1204
VWill
p1242
sI1205
VWind
p1243
sI1206
VWinnow
p1244
sI1207
VWinter
p1245
sI1208
VWithin
p1246
sI1209
VWoman
p1247
sI1210
VWords
p1248
sI1211
VWorld
p1249
sI1212
VWould
p1250
sI1213
VXanadu
p1251
sI1214
VYou--beside--
p1252
sI1215
VYour
p1253
sI1216
VZephyr
p1254
sI1217
Vable
p1255
sI1218
Vablution
p1256
sI1219
Vabode
p1257
sI1220
Vabsorb--
p1258
sI1221
Vabysmal
p1259
sI1222
Vachieve
p1260
sI1223
Vacross
p1261
sI1224
Vacted
p1262
sI1225
Vactoh
p1263
sI1226
Vactors
p1264
sI1227
Vadamant
p1265
sI1228
Vadmit
p1266
sI1229
Vafar
p1267
sI1230
Vagainst
p1268
sI1231
Vagayne
p1269
sI1232
Vago
p1270
sI1233
Vagrees
p1271
sI1234
Vah
p1272
sI1235
Vahmy
p1273
sI1236
Vaim
p1274
sI1237
Vair-blue
p1275
sI1238
Vairand
p1276
sI1239
Valarm
p1277
sI1240
Vall-shaking
p1278
sI1241
Valoft
p1279
sI1242
Valso
p1280
sI1243
Valways
p1281
sI1244
Vamain
p1282
sI1245
Vamong
p1283
sI1246
Vamorous
p1284
sI1247
Vanger
p1285
sI1248
Vanguish
p1286
sI1249
Vanvil
p1287
sI1250
Vapace
p1288
sI1251
Varbors
p1289
sI1252
Varising
p1290
sI1253
Varmes
p1291
sI1254
Varmor
p1292
sI1255
Varound
p1293
sI1256
Vart--
p1294
sI1257
Vashes
p1295
sI1258
Vasked
p1296
sI1259
Vasleep
p1297
sI1260
Vathwart
p1298
sI1261
Vautumn
p1299
sI1262
Vaway--
p1300
sI1263
Vawhile
p1301
sI1264
Vawoke
p1302
sI1265
Vax
p1303
sI1266
Vazure
p1304
sI1267
Vbackwards
p1305
sI1268
Vbald
p1306
sI1269
Vballoon
p1307
sI1270
Vbare
p1308
sI1271
Vbarks
p1309
sI1272
Vbarrows
p1310
sI1273
Vbarton
p1311
sI1274
Vbaseless
p1312
sI1275
Vbating
p1313
sI1276
Vbattle
p1314
sI1277
Vbeach
p1315
sI1278
Vbeamish
p1316
sI1279
Vbear
p1317
sI1280
Vbears
p1318
sI1281
Vbeast
p1319
sI1282
Vbeautiful--
p1320
sI1283
Vbeen
p1321
sI1284
Vbees
p1322
sI1285
Vbegan
p1323
sI1286
Vbell
p1324
sI1287
Vbellies
p1325
sI1288
Vbelow
p1326
sI1289
Vbeside
p1327
sI1290
Vbetide--
p1328
sI1291
Vbetrothed
p1329
sI1292
Vbetter
p1330
sI1293
Vbetween
p1331
sI1294
Vbeweep
p1332
sI1295
Vbeyond
p1333
sI1296
Vbid
p1334
sI1297
Vbidding
p1335
sI1298
Vbig
p1336
sI1299
Vbillion
p1337
sI1300
Vbillows
p1338
sI1301
Vbird--
p1339
sI1302
Vbirth
p1340
sI1303
Vbite
p1341
sI1304
Vblack-browed
p1342
sI1305
Vblackbird
p1343
sI1306
Vblackbirds
p1344
sI1307
Vblade
p1345
sI1308
Vblame
p1346
sI1309
Vblank
p1347
sI1310
Vblast
p1348
sI1311
Vbleared
p1349
sI1312
Vblew
p1350
sI1313
Vblind
p1351
sI1314
Vblindly
p1352
sI1315
Vblinds
p1353
sI1316
Vblithe
p1354
sI1317
Vbloody
p1355
sI1318
Vbloom
p1356
sI1319
Vblossomed
p1357
sI1320
Vblown
p1358
sI1321
Vblows
p1359
sI1322
Vblue-bleak
p1360
sI1323
Vbold
p1361
sI1324
Vbonds
p1362
sI1325
Vbones
p1363
sI1326
Vbooks
p1364
sI1327
Vboon
p1365
sI1328
Vbootless
p1366
sI1329
Vborne
p1367
sI1330
Vboughs
p1368
sI1331
Vbow
p1369
sI1332
Vbow-bend
p1370
sI1333
Vboy
p1371
sI1334
Vboys
p1372
sI1335
Vbracelets
p1373
sI1336
Vbrag
p1374
sI1337
Vbrand
p1375
sI1338
Vbrazen
p1376
sI1339
Vbreaking
p1377
sI1340
Vbreathing
p1378
sI1341
Vbred
p1379
sI1342
Vbreeze
p1380
sI1343
Vbrief
p1381
sI1344
Vbrings
p1382
sI1345
Vbrink
p1383
sI1346
Vbroods
p1384
sI1347
Vbrought
p1385
sI1348
Vbrow
p1386
sI1349
Vbrown
p1387
sI1350
Vbuckets--
p1388
sI1351
Vbuds
p1389
sI1352
Vbugles
p1390
sI1353
Vbuild
p1391
sI1354
Vbuilt
p1392
sI1355
Vbulk
p1393
sI1356
Vbundle
p1394
sI1357
Vburbled
p1395
sI1358
Vburn
p1396
sI1359
Vburned
p1397
sI1360
Vburst
p1398
sI1361
Vcamp
p1399
sI1362
Vcancel
p1400
sI1363
Vcareful
p1401
sI1364
Vcarelessness
p1402
sI1365
Vcasual
p1403
sI1366
Vcataracts
p1404
sI1367
Vcatch
p1405
sI1368
Vcattle
p1406
sI1369
Vcaught
p1407
sI1370
Vcauseway
p1408
sI1371
Vcawed
p1409
sI1372
Vceaseless
p1410
sI1373
Vcedarn
p1411
sI1374
Vcelerity
p1412
sI1375
Vcells
p1413
sI1376
Vcertain
p1414
sI1377
Vchaffy
p1415
sI1378
Vchain
p1416
sI1379
Vchair
p1417
sI1380
Vchamber
p1418
sI1381
Vchance
p1419
sI1382
Vchang'd
p1420
sI1383
Vchanged
p1421
sI1384
Vchanging
p1422
sI1385
Vcharged
p1423
sI1386
Vchaste
p1424
sI1387
Vchatter
p1425
sI1388
Vchevalier
p1426
sI1389
Vchiefly
p1427
sI1390
Vchild
p1428
sI1391
Vchildhood
p1429
sI1392
Vchildishly
p1430
sI1393
Vchildishness
p1431
sI1394
Vchivalrous
p1432
sI1395
Vchoirs--
p1433
sI1396
Vchortled
p1434
sI1397
Vchurch
p1435
sI1398
Vcircle
p1436
sI1399
Vcitadels
p1437
sI1400
Vcity
p1438
sI1401
Vcivil
p1439
sI1402
Vclasp
p1440
sI1403
Vclasps
p1441
sI1404
Vclaws
p1442
sI1405
Vcleanly
p1443
sI1406
Vclever
p1444
sI1407
Vcliff
p1445
sI1408
Vclimbing
p1446
sI1409
Vclimbs
p1447
sI1410
Vclock
p1448
sI1411
Vclosing
p1449
sI1412
Vclothes
p1450
sI1413
Vcloud-capped
p1451
sI1414
Vcloudy
p1452
sI1415
Vcluster
p1453
sI1416
Vcoarse-spun
p1454
sI1417
Vcocks
p1455
sI1418
Vcombat
p1456
sI1419
Vcommon
p1457
sI1420
Vcompare
p1458
sI1421
Vcompete
p1459
sI1422
Vcomplexion
p1460
sI1423
Vconfused
p1461
sI1424
Vconsider
p1462
sI1425
Vcontain
p1463
sI1426
Vcontrols
p1464
sI1427
Vconvent's
p1465
sI1428
Vcoomb
p1466
sI1429
Vcoral
p1467
sI1430
Vcord
p1468
sI1431
Vcountest
p1469
sI1432
Vcove
p1470
sI1433
Vcover
p1471
sI1434
Vcrack
p1472
sI1435
Vcrawls
p1473
sI1436
Vcreatures
p1474
sI1437
Vcreep
p1475
sI1438
Vcreeping
p1476
sI1439
Vcrest
p1477
sI1440
Vcrimson
p1478
sI1441
Vcrisped
p1479
sI1442
Vcrooked
p1480
sI1443
Vcross
p1481
sI1444
Vcrossed
p1482
sI1445
Vcrown
p1483
sI1446
Vcry
p1484
sI1447
Vcuckoo
p1485
sI1448
Vcultured
p1486
sI1449
Vcurious
p1487
sI1450
Vcurrent
p1488
sI1451
Vcurtain
p1489
sI1452
Vcutting
p1490
sI1453
Vdaffodil
p1491
sI1454
Vdale
p1492
sI1455
Vdamsel
p1493
sI1456
Vdance
p1494
sI1457
Vdangerous
p1495
sI1458
Vdapple-dawn-drawn
p1496
sI1459
Vdarkling
p1497
sI1460
Vdarkly
p1498
sI1461
Vdarksome
p1499
sI1462
Vdarling
p1500
sI1463
Vdarts
p1501
sI1464
Vdate
p1502
sI1465
Vdauphin
p1503
sI1466
Vday--
p1504
sI1467
Vday-labor
p1505
sI1468
Vdaylight's
p1506
sI1469
Vdays
p1507
sI1470
Vdeaden'd
p1508
sI1471
Vdeadly
p1509
sI1472
Vdeaf
p1510
sI1473
Vdear
p1511
sI1474
Vdearly
p1512
sI1475
Vdeath-bed
p1513
sI1476
Vdeath-pale
p1514
sI1477
Vdeathbed
p1515
sI1478
Vdeclines
p1516
sI1479
Vdeclining
p1517
sI1480
Vdecree
p1518
sI1481
Vdeeds
p1519
sI1482
Vdeeper
p1520
sI1483
Vdeeps
p1521
sI1484
Vdefeat
p1522
sI1485
Vdefend
p1523
sI1486
Vdeigned
p1524
sI1487
Vdelicate
p1525
sI1488
Vdelight
p1526
sI1489
Vdelight--
p1527
sI1490
Vdemented
p1528
sI1491
Vdemon-lover
p1529
sI1492
Vden
p1530
sI1493
Vdenied
p1531
sI1494
Vdeserts
p1532
sI1495
Vdespair
p1533
sI1496
Vdespising
p1534
sI1497
Vdestroy
p1535
sI1498
Vdevice
p1536
sI1499
Vdies
p1537
sI1500
Vdiffer--
p1538
sI1501
Vdimmed
p1539
sI1502
Vdisgrace
p1540
sI1503
Vdissolved
p1541
sI1504
Vdistant
p1542
sI1505
Vdisturbed
p1543
sI1506
Vdiurnal
p1544
sI1507
Vdivide
p1545
sI1508
Vdivines
p1546
sI1509
Vdivinity
p1547
sI1510
Vdoff
p1548
sI1511
Vdom
p1549
sI1512
Vdoom
p1550
sI1513
Vdoor
p1551
sI1514
Vdoors
p1552
sI1515
Vdoubt
p1553
sI1516
Vdowne
p1554
sI1517
Vdrags
p1555
sI1518
Vdrained
p1556
sI1519
Vdraw
p1557
sI1520
Vdrawing-down
p1558
sI1521
Vdreamed
p1559
sI1522
Vdreamed--
p1560
sI1523
Vdreamless
p1561
sI1524
Vdrenched
p1562
sI1525
Vdrew
p1563
sI1526
Vdrizzling
p1564
sI1527
Vdrowned
p1565
sI1528
Vdrunk
p1566
sI1529
Vdrunkard
p1567
sI1530
Vdumb
p1568
sI1531
Vdusk
p1569
sI1532
Vduty
p1570
sI1533
Ve'er
p1571
sI1534
Vear
p1572
sI1535
Vearliest
p1573
sI1536
Vearnest
p1574
sI1537
Vearthand
p1575
sI1538
Vearthly
p1576
sI1539
Vease
p1577
sI1540
Vease--
p1578
sI1541
Veasiest
p1579
sI1542
Veastward
p1580
sI1543
Veasy
p1581
sI1544
Veclipsing
p1582
sI1545
Vecstasy
p1583
sI1546
Veight
p1584
sI1547
Velder
p1585
sI1548
Velf
p1586
sI1549
Velfin
p1587
sI1550
Velm-tops
p1588
sI1551
Vembroidered
p1589
sI1552
Vendless
p1590
sI1553
Vends
p1591
sI1554
Venemy
p1592
sI1555
Venjoy
p1593
sI1556
Venormous
p1594
sI1557
Venthrall
p1595
sI1558
Vequally
p1596
sI1559
Vequanimity
p1597
sI1560
Verror
p1598
sI1561
Veve
p1599
sI1562
Veve's
p1600
sI1563
Veven
p1601
sI1564
Vever--or
p1602
sI1565
Veverywhere
p1603
sI1566
Vexact
p1604
sI1567
Vexpire
p1605
sI1568
Vexult
p1606
sI1569
Vfabric
p1607
sI1570
Vfact
p1608
sI1571
Vfaded
p1609
sI1572
Vfadeth
p1610
sI1573
Vfading
p1611
sI1574
Vfail
p1612
sI1575
Vfailing
p1613
sI1576
Vfain
p1614
sI1577
Vfaintest
p1615
sI1578
Vfaintly
p1616
sI1579
Vfalling
p1617
sI1580
Vfaltering
p1618
sI1581
Vfancied
p1619
sI1582
Vfancy
p1620
sI1583
Vfanning
p1621
sI1584
Vfarm
p1622
sI1585
Vfarther--and
p1623
sI1586
Vfather
p1624
sI1587
Vfathom
p1625
sI1588
Vfay
p1626
sI1589
Vfearfully
p1627
sI1590
Vfeather'd
p1628
sI1591
Vfells
p1629
sI1592
Vfelt
p1630
sI1593
Vfertile
p1631
sI1594
Vfever-dew
p1632
sI1595
Vfiery-footed
p1633
sI1596
Vfight
p1634
sI1597
Vfine
p1635
sI1598
Vfireplace
p1636
sI1599
Vfissures
p1637
sI1600
Vflail
p1638
sI1601
Vflash
p1639
sI1602
Vflashing
p1640
sI1603
Vflee
p1641
sI1604
Vflesh
p1642
sI1605
Vflew
p1643
sI1606
Vflight
p1644
sI1607
Vfloating
p1645
sI1608
Vflock
p1646
sI1609
Vflourishes
p1647
sI1610
Vflower
p1648
sI1611
Vfoam
p1649
sI1612
Vfoil
p1650
sI1613
Vfollow
p1651
sI1614
Vfondly
p1652
sI1615
Vfools
p1653
sI1616
Vforced
p1654
sI1617
Vforest
p1655
sI1618
Vforever
p1656
sI1619
Vforget
p1657
sI1620
Vforgot
p1658
sI1621
Vforsaken
p1659
sI1622
Vforward
p1660
sI1623
Vfoul
p1661
sI1624
Vfount
p1662
sI1625
Vfoxglove
p1663
sI1626
Vfragile
p1664
sI1627
Vfragrant
p1665
sI1628
Vfreckled
p1666
sI1629
Vfreezing
p1667
sI1630
Vfreshness
p1668
sI1631
Vfret
p1669
sI1632
Vfright
p1670
sI1633
Vfro
p1671
sI1634
Vfrost
p1672
sI1635
Vfrumious
p1673
sI1636
Vgall
p1674
sI1637
Vgalumphing
p1675
sI1638
Vgapd
p1676
sI1639
Vgarden
p1677
sI1640
Vgardens
p1678
sI1641
Vgarish
p1679
sI1642
Vgarland
p1680
sI1643
Vgash
p1681
sI1644
Vgasp
p1682
sI1645
Vgate
p1683
sI1646
Vgathered
p1684
sI1647
Vgathers
p1685
sI1648
Vgently
p1686
sI1649
Vgermains
p1687
sI1650
Vgetting
p1688
sI1651
Vghastly
p1689
sI1652
Vgiant
p1690
sI1653
Vgift
p1691
sI1654
Vgifts
p1692
sI1655
Vgirdled
p1693
sI1656
Vgirls'
p1694
sI1657
Vgive
p1695
sI1658
Vglade
p1696
sI1659
Vgliding
p1697
sI1660
Vglimmers
p1698
sI1661
Vglittering
p1699
sI1662
Vgloam
p1700
sI1663
Vglories
p1701
sI1664
Vglory
p1702
sI1665
Vglowing
p1703
sI1666
Vgoes
p1704
sI1667
Vgoing
p1705
sI1668
Vgold-vermilsbion
p1706
sI1669
Vgood-morrow
p1707
sI1670
Vgood-night
p1708
sI1671
Vgoodbyes
p1709
sI1672
Vgorgeous
p1710
sI1673
Vgot
p1711
sI1674
Vgown
p1712
sI1675
Vgraces
p1713
sI1676
Vgrain
p1714
sI1677
Vgranary
p1715
sI1678
Vgrandeur
p1716
sI1679
Vgrasp
p1717
sI1680
Vgrave
p1718
sI1681
Vgraves
p1719
sI1682
Vgray-hair'd
p1720
sI1683
Vgreatness
p1721
sI1684
Vgreenery
p1722
sI1685
Vgrief
p1723
sI1686
Vgrieve
p1724
sI1687
Vgrow'st
p1725
sI1688
Vgrowing
p1726
sI1689
Vgrown
p1727
sI1690
Vgrowth
p1728
sI1691
Vguilty
p1729
sI1692
Vguns
p1730
sI1693
Vhad'st
p1731
sI1694
Vhaggard
p1732
sI1695
Vhalf-inch
p1733
sI1696
Vhalf-intermitted
p1734
sI1697
Vhalf-light
p1735
sI1698
Vhalf-thawed
p1736
sI1699
Vhammer
p1737
sI1700
Vhandiwork
p1738
sI1701
Vhang
p1739
sI1702
Vhanged
p1740
sI1703
Vhard
p1741
sI1704
Vharder
p1742
sI1705
Vharvest
p1743
sI1706
Vharvest's
p1744
sI1707
Vhaste
p1745
sI1708
Vhasty
p1746
sI1709
Vhate
p1747
sI1710
Vhavens
p1748
sI1711
Vhay
p1749
sI1712
Vhazel
p1750
sI1713
Vheadpiece
p1751
sI1714
Vhealthy
p1752
sI1715
Vhears
p1753
sI1716
Vhearthside
p1754
sI1717
Vheavens'
p1755
sI1718
Vheavily
p1756
sI1719
Vheavy
p1757
sI1720
Vheel
p1758
sI1721
Vhell
p1759
sI1722
Vhelmet-hidden
p1760
sI1723
Vhemispheres
p1761
sI1724
Vhempen
p1762
sI1725
Vhence
p1763
sI1726
Vherbs
p1764
sI1727
Vhermits
p1765
sI1728
Vheron
p1766
sI1729
Vherself
p1767
sI1730
Vhidden
p1768
sI1731
Vhiding
p1769
sI1732
Vhigher
p1770
sI1733
Vhighest
p1771
sI1734
Vhills
p1772
sI1735
Vhint
p1773
sI1736
Vhoarse
p1774
sI1737
Vhold
p1775
sI1738
Vhonest
p1776
sI1739
Vhoney
p1777
sI1740
Vhoney-dew
p1778
sI1741
Vhonour
p1779
sI1742
Vhorrid
p1780
sI1743
Vhorse
p1781
sI1744
Vhourly
p1782
sI1745
Vhours
p1783
sI1746
Vhowling
p1784
sI1747
Vhurl
p1785
sI1748
Vhurled
p1786
sI1749
Vhurricanoes
p1787
sI1750
Vhymns
p1788
sI1751
Vi'
p1789
sI1752
Vidle
p1790
sI1753
Vignoble
p1791
sI1754
Vimagination
p1792
sI1755
Vimagined
p1793
sI1756
Vimmediately
p1794
sI1757
Vincense-bearing
p1795
sI1758
Vinconstant
p1796
sI1759
Vinfirmity
p1797
sI1760
Vinflamd
p1798
sI1761
Vinglorious
p1799
sI1762
Vingrateful
p1800
sI1763
Vinjustice
p1801
sI1764
Vinmost
p1802
sI1765
Vinsubstantial
p1803
sI1766
Vinvoked
p1804
sI1767
Viron
p1805
sI1768
Vitself
p1806
sI1769
Vjaws
p1807
sI1770
Vjourney
p1808
sI1771
Vkill
p1809
sI1772
Vkindles
p1810
sI1773
Vkindly
p1811
sI1774
Vking
p1812
sI1775
Vking-
p1813
sI1776
Vkingly
p1814
sI1777
Vkisses
p1815
sI1778
Vkneel
p1816
sI1779
Vknees
p1817
sI1780
Vknell
p1818
sI1781
Vknighted
p1819
sI1782
Vknights
p1820
sI1783
Vknock
p1821
sI1784
Vknocked
p1822
sI1785
Vknots
p1823
sI1786
Vlack
p1824
sI1787
Vlady
p1825
sI1788
Vlair
p1826
sI1789
Vlands
p1827
sI1790
Vlanguage
p1828
sI1791
Vlark
p1829
sI1792
Vlash
p1830
sI1793
Vlate
p1831
sI1794
Vlaughing
p1832
sI1795
Vlaughs
p1833
sI1796
Vlead
p1834
sI1797
Vleaf
p1835
sI1798
Vleague
p1836
sI1799
Vleapt
p1837
sI1800
Vlearn
p1838
sI1801
Vlearn'd
p1839
sI1802
Vlease
p1840
sI1803
Vleast
p1841
sI1804
Vleaves
p1842
sI1805
Vlest
p1843
sI1806
Vlets
p1844
sI1807
Vlevel
p1845
sI1808
Vliberty
p1846
sI1809
Vlids
p1847
sI1810
Vlifeless
p1848
sI1811
Vlightning
p1849
sI1812
Vlights
p1850
sI1813
Vlilies
p1851
sI1814
Vlily
p1852
sI1815
Vliquefaction
p1853
sI1816
Vlist
p1854
sI1817
Vlistlessness
p1855
sI1818
Vlived
p1856
sI1819
Vlodge
p1857
sI1820
Vlodging
p1858
sI1821
Vlofty
p1859
sI1822
Vlone
p1860
sI1823
Vlooked
p1861
sI1824
Vloom
p1862
sI1825
Vlooped
p1863
sI1826
Vloose
p1864
sI1827
Vloss
p1865
sI1828
Vlost
p1866
sI1829
Vlovd
p1867
sI1830
Vlove-performing
p1868
sI1831
Vlovelier
p1869
sI1832
Vlover's
p1870
sI1833
Vloverless
p1871
sI1834
Vlovers
p1872
sI1835
Vloving
p1873
sI1836
Vlulld
p1874
sI1837
Vlurks
p1875
sI1838
Vmaidenhoods
p1876
sI1839
Vmajestical
p1877
sI1840
Vmankind
p1878
sI1841
Vmanna-dew
p1879
sI1842
Vmantle
p1880
sI1843
Vmanxome
p1881
sI1844
Vmaple
p1882
sI1845
Vmaps
p1883
sI1846
Vmarbled
p1884
sI1847
Vmarch
p1885
sI1848
Vmassacre
p1886
sI1849
Vmassy
p1887
sI1850
Vmastery
p1888
sI1851
Vmate
p1889
sI1852
Vmatron
p1890
sI1853
Vmatter
p1891
sI1854
Vmayst
p1892
sI1855
Vmead
p1893
sI1856
Vmeads
p1894
sI1857
Vmeasure
p1895
sI1858
Vmeasured
p1896
sI1859
Vmeek
p1897
sI1860
Vmeet
p1898
sI1861
Vmeets
p1899
sI1862
Vmelted
p1900
sI1863
Vmemories
p1901
sI1864
Vmen's
p1902
sI1865
Vmend
p1903
sI1866
Vmethinks
p1904
sI1867
Vmid
p1905
sI1868
Vmidway
p1906
sI1869
Vmightst
p1907
sI1870
Vmighty
p1908
sI1871
Vmile
p1909
sI1872
Vmilk
p1910
sI1873
Vmill
p1911
sI1874
Vmillennial
p1912
sI1875
Vminds
p1913
sI1876
Vmingled
p1914
sI1877
Vminion
p1915
sI1878
Vmiracle
p1916
sI1879
Vmire
p1917
sI1880
Vmirrors
p1918
sI1881
Vmischievous
p1919
sI1882
Vmissed
p1920
sI1883
Vmistaken
p1921
sI1884
Vmixed
p1922
sI1885
Vmoan
p1923
sI1886
Vmock
p1924
sI1887
Vmodesty
p1925
sI1888
Vmoist
p1926
sI1889
Vmonstrous
p1927
sI1890
Vmoods
p1928
sI1891
Vmoors--
p1929
sI1892
Vmorn
p1930
sI1893
Vmorning's
p1931
sI1894
Vmortality
p1932
sI1895
Vmother
p1933
sI1896
Vmould
p1934
sI1897
Vmouldered
p1935
sI1898
Vmoulds
p1936
sI1899
Vmountains
p1937
sI1900
Vmoved
p1938
sI1901
Vmoving
p1939
sI1902
Vnature
p1940
sI1903
Vnectar
p1941
sI1904
Vneed
p1942
sI1905
Vneighbours
p1943
sI1906
Vneighbours'
p1944
sI1907
Vnest
p1945
sI1908
Vnests
p1946
sI1909
Vnether
p1947
sI1910
Vnigh
p1948
sI1911
Vnobly
p1949
sI1912
Vnoise
p1950
sI1913
Vnook
p1951
sI1914
Vnoon
p1952
sI1915
Vnoontide
p1953
sI1916
Vnorth
p1954
sI1917
Vnorward
p1955
sI1918
Vnourished
p1956
sI1919
Vnutters
p1957
sI1920
Vnymphs
p1958
sI1921
Voak-cleaving
p1959
sI1922
Vobject
p1960
sI1923
Voccur
p1961
sI1924
Voften
p1962
sI1925
Voil
p1963
sI1926
Volder
p1964
sI1927
Vooze
p1965
sI1928
Voozing
p1966
sI1929
Vopen
p1967
sI1930
Vorchises
p1968
sI1931
Vorder
p1969
sI1932
Voriginal
p1970
sI1933
Vorisons
p1971
sI1934
Vothers
p1972
sI1935
Vours
p1973
sI1936
Voutcast
p1974
sI1937
Voverbalancing
p1975
sI1938
Vovercoat
p1976
sI1939
Vow'st
p1977
sI1940
Vowl
p1978
sI1941
Voxen
p1979
sI1942
Vpacing
p1980
sI1943
Vpageant
p1981
sI1944
Vpain
p1982
sI1945
Vpainted
p1983
sI1946
Vpair
p1984
sI1947
Vpalaces
p1985
sI1948
Vpall
p1986
sI1949
Vpallor
p1987
sI1950
Vpane
p1988
sI1951
Vpants
p1989
sI1952
Vpassing-bells
p1990
sI1953
Vpast
p1991
sI1954
Vpastime
p1992
sI1955
Vpastimes
p1993
sI1956
Vpatience
p1994
sI1957
Vpatter
p1995
sI1958
Vpause
p1996
sI1959
Vpaused
p1997
sI1960
Vpavement
p1998
sI1961
Vpay
p1999
sI1962
Vpeak
p2000
sI1963
Vpearls
p2001
sI1964
Vpen
p2002
sI1965
Vpendant
p2003
sI1966
Vpensive
p2004
sI1967
Vpeople
p2005
sI1968
Vperceiv'st
p2006
sI1969
Vperhaps
p2007
sI1970
Vperilous
p2008
sI1971
Vpersonal
p2009
sI1972
Vpictured
p2010
sI1973
Vpier
p2011
sI1974
Vpiled--and
p2012
sI1975
Vplaces
p2013
sI1976
Vplain
p2014
sI1977
Vplainly
p2015
sI1978
Vplan
p2016
sI1979
Vplant
p2017
sI1980
Vplayed
p2018
sI1981
Vpleased
p2019
sI1982
Vpleasure-dome
p2020
sI1983
Vplod
p2021
sI1984
Vplot
p2022
sI1985
Vplough
p2023
sI1986
Vplover
p2024
sI1987
Vplunderers
p2025
sI1988
Vpolypi
p2026
sI1989
Vpoor
p2027
sI1990
Vporous
p2028
sI1991
Vpossess
p2029
sI1992
Vpossessed
p2030
sI1993
Vpossession
p2031
sI1994
Vpost
p2032
sI1995
Vpraise
p2033
sI1996
Vpresent
p2034
sI1997
Vpride
p2035
sI1998
Vprideplume
p2036
sI1999
Vpriestlike
p2037
sI2000
Vprinces
p2038
sI2001
Vprofuse
p2039
sI2002
Vprop
p2040
sI2003
Vprophesying
p2041
sI2004
Vprow
p2042
sI2005
Vpull
p2043
sI2006
Vpulse
p2044
sI2007
Vpunish
p2045
sI2008
Vpunishment
p2046
sI2009
Vpup
p2047
sI2010
Vpure
p2048
sI2011
Vpurling
p2049
sI2012
Vpushing
p2050
sI2013
Vquick
p2051
sI2014
Vquicken
p2052
sI2015
Vquiet
p2053
sI2016
Vrafters
p2054
sI2017
Vraiment
p2055
sI2018
Vrain
p2056
sI2019
Vrais'd
p2057
sI2020
Vrang
p2058
sI2021
Vrather
p2059
sI2022
Vrattle
p2060
sI2023
Vraven's
p2061
sI2024
Vravish
p2062
sI2025
Vreached
p2063
sI2026
Vread
p2064
sI2027
Vreads
p2065
sI2028
Vreck
p2066
sI2029
Vrecover
p2067
sI2030
Vred
p2068
sI2031
Vreeds
p2069
sI2032
Vrefresh
p2070
sI2033
Vrein
p2071
sI2034
Vrelish
p2072
sI2035
Vremembered
p2073
sI2036
Vremoves
p2074
sI2037
Vreplies
p2075
sI2038
Vrepose
p2076
sI2039
Vreprove
p2077
sI2040
Vrequited
p2078
sI2041
Vresemble
p2079
sI2042
Vrested
p2080
sI2043
Vretire
p2081
sI2044
Vretired
p2082
sI2045
Vreturning
p2083
sI2046
Vrevels
p2084
sI2047
Vrhyme
p2085
sI2048
Vridge
p2086
sI2049
Vriding
p2087
sI2050
Vrifles'
p2088
sI2051
Vright
p2089
sI2052
Vrills
p2090
sI2053
Vring
p2091
sI2054
Vringlets
p2092
sI2055
Vripening
p2093
sI2056
Vrites
p2094
sI2057
Vrivage
p2095
sI2058
Vriven
p2096
sI2059
Vroads
p2097
sI2060
Vroar
p2098
sI2061
Vroared
p2099
sI2062
Vroaring
p2100
sI2063
Vrobe
p2101
sI2064
Vrock
p2102
sI2065
Vrocked
p2103
sI2066
Vrod
p2104
sI2067
Vrolling
p2105
sI2068
Vromantic
p2106
sI2069
Vroofs
p2107
sI2070
Vrook-delighting
p2108
sI2071
Vrooks
p2109
sI2072
Vroots
p2110
sI2073
Vrotundity
p2111
sI2074
Vrough
p2112
sI2075
Vrounded
p2113
sI2076
Vrows
p2114
sI2077
Vroyalty
p2115
sI2078
Vruined
p2116
sI2079
Vrunaways'
p2117
sI2080
Vrung
p2118
sI2081
Vrunner
p2119
sI2082
Vsad
p2120
sI2083
Vsadness
p2121
sI2084
Vsager
p2122
sI2085
Vsalt
p2123
sI2086
Vsame
p2124
sI2087
Vsand
p2125
sI2088
Vsang
p2126
sI2089
Vsans
p2127
sI2090
Vsat
p2128
sI2091
Vsavage
p2129
sI2092
Vscanty
p2130
sI2093
Vscared
p2131
sI2094
Vscene
p2132
sI2095
Vscope
p2133
sI2096
Vscorn
p2134
sI2097
Vscours
p2135
sI2098
Vscratch
p2136
sI2099
Vsea--
p2137
sI2100
Vsea-discoverers
p2138
sI2101
Vsea-scented
p2139
sI2102
Vseal
p2140
sI2103
Vseared
p2141
sI2104
Vseason
p2142
sI2105
Vseed
p2143
sI2106
Vseem
p2144
sI2107
Vseems
p2145
sI2108
Vsees
p2146
sI2109
Vseething
p2147
sI2110
Vseize
p2148
sI2111
Vsent
p2149
sI2112
Vseraphic
p2150
sI2113
Vshades
p2151
sI2114
Vshadowy
p2152
sI2115
Vshady
p2153
sI2116
Vshaft
p2154
sI2117
Vshaggy
p2155
sI2118
Vshakes
p2156
sI2119
Vshamed
p2157
sI2120
Vshares
p2158
sI2121
Vshed
p2159
sI2122
Vsheer
p2160
sI2123
Vshells
p2161
sI2124
Vshines
p2162
sI2125
Vshining
p2163
sI2126
Vshipboys
p2164
sI2127
Vshires
p2165
sI2128
Vshod
p2166
sI2129
Vshook
p2167
sI2130
Vshore
p2168
sI2131
Vshores
p2169
sI2132
Vshot
p2170
sI2133
Vshou'd
p2171
sI2134
Vshouted
p2172
sI2135
Vshowers
p2173
sI2136
Vshown
p2174
sI2137
Vshrunk
p2175
sI2138
Vshuns
p2176
sI2139
Vshut
p2177
sI2140
Vsickly
p2178
sI2141
Vside--
p2179
sI2142
Vsided
p2180
sI2143
Vsidelong
p2181
sI2144
Vsides
p2182
sI2145
Vsideways
p2183
sI2146
Vsighed
p2184
sI2147
Vsight
p2185
sI2148
Vsights
p2186
sI2149
Vsilence
p2187
sI2150
Vsilken
p2188
sI2151
Vsilks
p2189
sI2152
Vsillion
p2190
sI2153
Vsilver
p2191
sI2154
Vsimple
p2192
sI2155
Vsin
p2193
sI2156
Vsinews
p2194
sI2157
Vsinuous
p2195
sI2158
Vsir
p2196
sI2159
Vskate's
p2197
sI2160
Vskims
p2198
sI2161
Vskin
p2199
sI2162
Vslacken
p2200
sI2163
Vslain
p2201
sI2164
Vslanted
p2202
sI2165
Vsleepeth
p2203
sI2166
Vsleepless
p2204
sI2167
Vslept
p2205
sI2168
Vslew
p2206
sI2169
Vslim
p2207
sI2170
Vslimed
p2208
sI2171
Vslippery
p2209
sI2172
Vslow-arching
p2210
sI2173
Vslower
p2211
sI2174
Vslumber
p2212
sI2175
Vslumbering
p2213
sI2176
Vslushy
p2214
sI2177
Vsmalle
p2215
sI2178
Vsmeared
p2216
sI2179
Vsmell
p2217
sI2180
Vsmokeless
p2218
sI2181
Vsmoother
p2219
sI2182
Vsmudge
p2220
sI2183
Vsnake-
p2221
sI2184
Vsnicker-snack
p2222
sI2185
Vsnorted
p2223
sI2186
Vsoar
p2224
sI2187
Vsober-suited
p2225
sI2188
Vsodden
p2226
sI2189
Vsoft
p2227
sI2190
Vsoil
p2228
sI2191
Vsojourn
p2229
sI2192
Vsolace
p2230
sI2193
Vsomeone
p2231
sI2194
Vsomewhat
p2232
sI2195
Vson
p2233
sI2196
Vsongless
p2234
sI2197
Vsore
p2235
sI2198
Vsought
p2236
sI2199
Vsought-
p2237
sI2200
Vsound
p2238
sI2201
Vsound--
p2239
sI2202
Vsounding
p2240
sI2203
Vsounds
p2241
sI2204
Vspeak
p2242
sI2205
Vspears
p2243
sI2206
Vspeculating
p2244
sI2207
Vspeechless
p2245
sI2208
Vsphered
p2246
sI2209
Vspied
p2247
sI2210
Vspill
p2248
sI2211
Vspirit
p2249
sI2212
Vspirit's
p2250
sI2213
Vsplendour
p2251
sI2214
Vsplit
p2252
sI2215
Vsponges
p2253
sI2216
Vsponges--
p2254
sI2217
Vspots
p2255
sI2218
Vspout
p2256
sI2219
Vsprang
p2257
sI2220
Vsprings--
p2258
sI2221
Vsprung
p2259
sI2222
Vspurt
p2260
sI2223
Vsquirrel's
p2261
sI2224
Vstainless
p2262
sI2225
Vstair
p2263
sI2226
Vstake
p2264
sI2227
Vstalks
p2265
sI2228
Vstands
p2266
sI2229
Vstartled
p2267
sI2230
Vstarved
p2268
sI2231
Vstately
p2269
sI2232
Vsteady
p2270
sI2233
Vsteals
p2271
sI2234
Vsteed
p2272
sI2235
Vsteeds
p2273
sI2236
Vsteep
p2274
sI2237
Vsteeples
p2275
sI2238
Vsteps
p2276
sI2239
Vstir
p2277
sI2240
Vstones
p2278
sI2241
Vstorm
p2279
sI2242
Vstorms
p2280
sI2243
Vstraight
p2281
sI2244
Vstrawy
p2282
sI2245
Vstream
p2283
sI2246
Vstreamed
p2284
sI2247
Vstreamers
p2285
sI2248
Vstreams
p2286
sI2249
Vstricken
p2287
sI2250
Vstriding
p2288
sI2251
Vstrife
p2289
sI2252
Vstrike
p2290
sI2253
Vstring
p2291
sI2254
Vstrings
p2292
sI2255
Vstrives
p2293
sI2256
Vstrove
p2294
sI2257
Vstructure
p2295
sI2258
Vstudents
p2296
sI2259
Vstuttering
p2297
sI2260
Vsucked
p2298
sI2261
Vsudden
p2299
sI2262
Vsuffer
p2300
sI2263
Vsullen
p2301
sI2264
Vsulph'rous
p2302
sI2265
Vsundry
p2303
sI2266
Vsunless
p2304
sI2267
Vsunlights
p2305
sI2268
Vsunset
p2306
sI2269
Vsurface
p2307
sI2270
Vsurge
p2308
sI2271
Vsustain
p2309
sI2272
Vsustained
p2310
sI2273
Vsustaining
p2311
sI2274
Vswale
p2312
sI2275
Vsweeps
p2313
sI2276
Vsweetly
p2314
sI2277
Vswift's
p2315
sI2278
Vswoon
p2316
sI2279
Vswording
p2317
sI2280
Vswords
p2318
sI2281
Vsymphony
p2319
sI2282
Vtable-shore
p2320
sI2283
Vtables
p2321
sI2284
Vtackle
p2322
sI2285
Vtail
p2323
sI2286
Vtakes
p2324
sI2287
Vtaketh
p2325
sI2288
Vtalent
p2326
sI2289
Vtall
p2327
sI2290
Vtall-towered
p2328
sI2291
Vtap
p2329
sI2292
Vtask
p2330
sI2293
Vtasks
p2331
sI2294
Vtemperate
p2332
sI2295
Vtempest
p2333
sI2296
Vtemples
p2334
sI2297
Vtender-taken
p2335
sI2298
Vtenderness
p2336
sI2299
Vterror
p2337
sI2300
Vterrors
p2338
sI2301
Vth'unbending
p2339
sI2302
Vthat's
p2340
sI2303
Vthence
p2341
sI2304
Vthereupon
p2342
sI2305
Vtherewith
p2343
sI2306
Vthinks
p2344
sI2307
Vthorn
p2345
sI2308
Vthought-executing
p2346
sI2309
Vthow
p2347
sI2310
Vthrall
p2348
sI2311
Vthreaden
p2349
sI2312
Vthree-personed
p2350
sI2313
Vthresher's
p2351
sI2314
Vthrew
p2352
sI2315
Vthrice
p2353
sI2316
Vthroat
p2354
sI2317
Vthrobbings
p2355
sI2318
Vthrow
p2356
sI2319
Vthrushes
p2357
sI2320
Vthunder
p2358
sI2321
Vthunderbolts
p2359
sI2322
Vthunders
p2360
sI2323
Vtimely
p2361
sI2324
Vtired
p2362
sI2325
Vtoil
p2363
sI2326
Vtomb
p2364
sI2327
Vtracks
p2365
sI2328
Vtrade
p2366
sI2329
Vtrampled
p2367
sI2330
Vtranslate
p2368
sI2331
Vtraveller's
p2369
sI2332
Vtrembled
p2370
sI2333
Vtrembling
p2371
sI2334
Vtrips
p2372
sI2335
Vtrisyllable
p2373
sI2336
Vtriumph
p2374
sI2337
Vtroth
p2375
sI2338
Vtrouble
p2376
sI2339
Vtroubled
p2377
sI2340
Vtry
p2378
sI2341
Vtrying
p2379
sI2342
Vtulgey
p2380
sI2343
Vturmoil
p2381
sI2344
Vtwelve
p2382
sI2345
Vtwice
p2383
sI2346
Vtwilight
p2384
sI2347
Vtwist
p2385
sI2348
Vuffish
p2386
sI2349
Vunchangeable
p2387
sI2350
Vuncommended
p2388
sI2351
Vundeceived
p2389
sI2352
Vundistrest
p2390
sI2353
Vuninvaded
p2391
sI2354
Vunited
p2392
sI2355
Vunlovely
p2393
sI2356
Vunmanned
p2394
sI2357
Vunrest
p2395
sI2358
Vunseen
p2396
sI2359
Vuntalked
p2397
sI2360
Vuntrimmed
p2398
sI2361
Vuntrodden
p2399
sI2362
Vup-drawn
p2400
sI2363
Vupper
p2401
sI2364
Vuse
p2402
sI2365
Vuseful
p2403
sI2366
Vusurped
p2404
sI2367
Vutterance
p2405
sI2368
Vvagrant
p2406
sI2369
Vvale
p2407
sI2370
Vvallour
p2408
sI2371
Vvast
p2409
sI2372
Vveil
p2410
sI2373
Vveiled
p2411
sI2374
Vveins
p2412
sI2375
Vvery
p2413
sI2376
Vvibration
p2414
sI2377
Vviceroy
p2415
sI2378
Vvirtue
p2416
sI2379
Vvisiting
p2417
sI2380
Vvoiceless
p2418
sI2381
Vvoices
p2419
sI2382
Vvows
p2420
sI2383
Vwagoner
p2421
sI2384
Vwaits
p2422
sI2385
Vwaking
p2423
sI2386
Vwalk
p2424
sI2387
Vwalking
p2425
sI2388
Vwan
p2426
sI2389
Vwand'rest
p2427
sI2390
Vwandering
p2428
sI2391
Vwaning
p2429
sI2392
Vwar
p2430
sI2393
Vwarm'd
p2431
sI2394
Vwarmed
p2432
sI2395
Vwarning
p2433
sI2396
Vwarping
p2434
sI2397
Vwarriors
p2435
sI2398
Vwastes
p2436
sI2399
Vwasting
p2437
sI2400
Vwatched
p2438
sI2401
Vwatches
p2439
sI2402
Vwatching
p2440
sI2403
Vwatered
p2441
sI2404
Vways
p2442
sI2405
Vwayside
p2443
sI2406
Vweakness
p2444
sI2407
Vwealth
p2445
sI2408
Vweaned
p2446
sI2409
Vweary
p2447
sI2410
Vweave
p2448
sI2411
Vweaver
p2449
sI2412
Vweb
p2450
sI2413
Vwell-appointed
p2451
sI2414
Vwept
p2452
sI2415
Vwer
p2453
sI2416
Vwet
p2454
sI2417
Vwharf
p2455
sI2418
Vwheel
p2456
sI2419
Vwhereof
p2457
sI2420
Vwhereon
p2458
sI2421
Vwherever
p2459
sI2422
Vwhiffling
p2460
sI2423
Vwhile
p2461
sI2424
Vwhip
p2462
sI2425
Vwhispering
p2463
sI2426
Vwhistle
p2464
sI2427
Vwider
p2465
sI2428
Vwilt
p2466
sI2429
Vwimpling
p2467
sI2430
Vwin
p2468
sI2431
Vwinding
p2469
sI2432
Vwines
p2470
sI2433
Vwink
p2471
sI2434
Vwinning
p2472
sI2435
Vwishes
p2473
sI2436
Vwishing
p2474
sI2437
Vwistlessness
p2475
sI2438
Vwitch
p2476
sI2439
Vwithereth
p2477
sI2440
Vwithin
p2478
sI2441
Vwoe
p2479
sI2442
Vwoe-begone
p2480
sI2443
Vwoman-yells
p2481
sI2444
Vwomen
p2482
sI2445
Vwoodpecker
p2483
sI2446
Vworm
p2484
sI2447
Vworship
p2485
sI2448
Vwouldst
p2486
sI2449
Vwound
p2487
sI2450
Vwounds
p2488
sI2451
Vwove
p2489
sI2452
Vwoven
p2490
sI2453
Vwrinkled
p2491
sI2454
Vwyll
p2492
sI2455
Vwynde
p2493
sI2456
Vyea
p2494
sI2457
Vyear--
p2495
sI2458
Vyes
p2496
sI2459
Vyesterday
p2497
sI2460
Vyf
p2498
sI2461
Vyn
p2499
sI2462
Vyoke
p2500
sI2463
Vyonder
p2501
sI2464
Vyou'll
p2502
sI2465
Vyou're
p2503
sI2466
Vzone
p2504
ss.